target datalayout = "e-m:e-p270:32:32-p271:32:32-p272:64:64-i64:64-i128:128-f80:128-n8:16:32:64-S128"
target triple = "x86_64-pc-linux-gnu"

%struct.event_base = type { ptr, ptr, %struct.event_changelist, ptr, %struct.evsig_info, i32, i32, i32, i32, i32, i32, i32, i32, i32, i32, i32, i32, ptr, i32, %struct.evcallback_list, ptr, i32, i32, %struct.event_signal_map, %struct.event_signal_map, %struct.min_heap, %struct.timeval, %struct.evutil_monotonic_timer, %struct.timeval, i64, i64, ptr, ptr, i32, ptr, i32, %struct.timeval, i32, i32, i32, [2 x i32], %struct.event, ptr, %struct.evutil_weakrand_state, %struct.once_event_list, [2 x %struct.evwatch_list] }
%struct.event_changelist = type { ptr, i32, i32 }
%struct.evsig_info = type { %struct.event, [2 x i32], i32, i32, [65 x ptr], ptr, i32 }
%struct.evcallback_list = type { ptr, ptr }
%struct.event_signal_map = type { ptr, i32 }
%struct.min_heap = type { ptr, i64, i64 }
%struct.evutil_monotonic_timer = type { i32, %struct.timeval, %struct.timeval }
%struct.timeval = type { i64, i64 }
%struct.event = type { %struct.event_callback, %union.anon.0, i32, i16, i16, ptr, %union.anon.2, %struct.timeval }
%struct.event_callback = type { %struct.anon, i16, i8, i8, %union.anon, ptr }
%struct.anon = type { ptr, ptr }
%union.anon = type { ptr }
%union.anon.0 = type { %struct.anon.1 }
%struct.anon.1 = type { ptr, ptr }
%union.anon.2 = type { %struct.anon.3 }
%struct.anon.3 = type { %struct.anon.4, %struct.timeval }
%struct.anon.4 = type { ptr, ptr }
%struct.evutil_weakrand_state = type { i32 }
%struct.once_event_list = type { ptr }
%struct.evwatch_list = type { ptr, ptr }
%struct.sigaction = type { %union.anon.7, %struct.__sigset_t, i32, ptr }
%union.anon.7 = type { ptr }
%struct.__sigset_t = type { [16 x i64] }

@event_debug_logging_mask_ = external global i32, align 4
@.str.1 = private unnamed_addr constant [47 x i8] c"%s: evsignal (%d) >= sh_old_max (%d), resizing\00", align 1
@__func__.evsig_ensure_saved_ = private unnamed_addr constant [20 x i8] c"evsig_ensure_saved_\00", align 1
@.str.2 = private unnamed_addr constant [8 x i8] c"realloc\00", align 1
@.str.3 = private unnamed_addr constant [7 x i8] c"malloc\00", align 1
@.str.4 = private unnamed_addr constant [10 x i8] c"sigaction\00", align 1

; Function Attrs: nounwind uwtable
define hidden i32 @evsig_ensure_saved_(ptr noundef %0, i32 noundef %1) #0 {
  %3 = alloca i32, align 4
  %4 = alloca ptr, align 8
  %5 = alloca i32, align 4
  %6 = alloca ptr, align 8
  %7 = alloca i32, align 4
  %8 = alloca i32, align 4
  store ptr %0, ptr %4, align 8
  store i32 %1, ptr %5, align 4
  %9 = load i32, ptr %5, align 4
  %10 = load ptr, ptr %4, align 8
  %11 = getelementptr inbounds nuw %struct.evsig_info, ptr %10, i32 0, i32 6
  %12 = load i32, ptr %11, align 8
  %13 = icmp sge i32 %9, %12
  br i1 %13, label %14, label %62

14:                                               ; preds = %2
  call void @llvm.lifetime.start.p0(i64 8, ptr %6) #8
  call void @llvm.lifetime.start.p0(i64 4, ptr %7) #8
  %15 = load i32, ptr %5, align 4
  %16 = add nsw i32 %15, 1
  store i32 %16, ptr %7, align 4
  br label %17

17:                                               ; preds = %14
  %18 = load i32, ptr @event_debug_logging_mask_, align 4
  %19 = icmp ne i32 %18, 0
  br i1 %19, label %20, label %25

20:                                               ; preds = %17
  %21 = load i32, ptr %5, align 4
  %22 = load ptr, ptr %4, align 8
  %23 = getelementptr inbounds nuw %struct.evsig_info, ptr %22, i32 0, i32 6
  %24 = load i32, ptr %23, align 8
  call void (ptr, ...) @event_debugx_(ptr noundef @.str.1, ptr noundef @__func__.evsig_ensure_saved_, i32 noundef %21, i32 noundef %24)
  br label %25

25:                                               ; preds = %20, %17
  br label %26

26:                                               ; preds = %25
  br label %27

27:                                               ; preds = %26
  %28 = load ptr, ptr %4, align 8
  %29 = getelementptr inbounds nuw %struct.evsig_info, ptr %28, i32 0, i32 5
  %30 = load ptr, ptr %29, align 8
  %31 = load i32, ptr %7, align 4
  %32 = sext i32 %31 to i64
  %33 = mul i64 %32, 8
  %34 = call ptr @event_mm_realloc_(ptr noundef %30, i64 noundef %33)
  store ptr %34, ptr %6, align 8
  %35 = load ptr, ptr %6, align 8
  %36 = icmp eq ptr %35, null
  br i1 %36, label %37, label %38

37:                                               ; preds = %27
  call void (ptr, ...) @event_warn(ptr noundef @.str.2)
  store i32 -1, ptr %3, align 4
  store i32 1, ptr %8, align 4
  br label %59

38:                                               ; preds = %27
  %39 = load ptr, ptr %6, align 8
  %40 = load ptr, ptr %4, align 8
  %41 = getelementptr inbounds nuw %struct.evsig_info, ptr %40, i32 0, i32 6
  %42 = load i32, ptr %41, align 8
  %43 = sext i32 %42 to i64
  %44 = mul i64 %43, 8
  %45 = getelementptr inbounds nuw i8, ptr %39, i64 %44
  %46 = load i32, ptr %7, align 4
  %47 = load ptr, ptr %4, align 8
  %48 = getelementptr inbounds nuw %struct.evsig_info, ptr %47, i32 0, i32 6
  %49 = load i32, ptr %48, align 8
  %50 = sub nsw i32 %46, %49
  %51 = sext i32 %50 to i64
  %52 = mul i64 %51, 8
  call void @llvm.memset.p0.i64(ptr align 1 %45, i8 0, i64 %52, i1 false)
  %53 = load i32, ptr %7, align 4
  %54 = load ptr, ptr %4, align 8
  %55 = getelementptr inbounds nuw %struct.evsig_info, ptr %54, i32 0, i32 6
  store i32 %53, ptr %55, align 8
  %56 = load ptr, ptr %6, align 8
  %57 = load ptr, ptr %4, align 8
  %58 = getelementptr inbounds nuw %struct.evsig_info, ptr %57, i32 0, i32 5
  store ptr %56, ptr %58, align 8
  store i32 0, ptr %8, align 4
  br label %59

59:                                               ; preds = %38, %37
  call void @llvm.lifetime.end.p0(i64 4, ptr %7) #8
  call void @llvm.lifetime.end.p0(i64 8, ptr %6) #8
  %60 = load i32, ptr %8, align 4
  switch i32 %60, label %65 [
    i32 0, label %61
    i32 1, label %63
  ]

61:                                               ; preds = %59
  br label %62

62:                                               ; preds = %61, %2
  store i32 0, ptr %3, align 4
  br label %63

63:                                               ; preds = %62, %59
  %64 = load i32, ptr %3, align 4
  ret i32 %64

65:                                               ; preds = %59
  unreachable
}

; Function Attrs: nounwind uwtable
define hidden i32 @evsig_set_handler_(ptr noundef %0, i32 noundef %1, ptr noundef %2) #0 {
  %4 = alloca i32, align 4
  %5 = alloca ptr, align 8
  %6 = alloca i32, align 4
  %7 = alloca ptr, align 8
  %8 = alloca %struct.sigaction, align 8
  %9 = alloca ptr, align 8
  %10 = alloca i32, align 4
  store ptr %0, ptr %5, align 8
  store i32 %1, ptr %6, align 4
  store ptr %2, ptr %7, align 8
  call void @llvm.lifetime.start.p0(i64 152, ptr %8) #8
  call void @llvm.lifetime.start.p0(i64 8, ptr %9) #8
  %11 = load ptr, ptr %5, align 8
  %12 = getelementptr inbounds nuw %struct.event_base, ptr %11, i32 0, i32 4
  store ptr %12, ptr %9, align 8
  %13 = load ptr, ptr %9, align 8
  %14 = load i32, ptr %6, align 4
  %15 = call i32 @evsig_ensure_saved_(ptr noundef %13, i32 noundef %14)
  %16 = icmp slt i32 %15, 0
  br i1 %16, label %17, label %18

17:                                               ; preds = %3
  store i32 -1, ptr %4, align 4
  store i32 1, ptr %10, align 4
  br label %68

18:                                               ; preds = %3
  %19 = call ptr @event_mm_malloc_(i64 noundef 152)
  %20 = load ptr, ptr %9, align 8
  %21 = getelementptr inbounds nuw %struct.evsig_info, ptr %20, i32 0, i32 5
  %22 = load ptr, ptr %21, align 8
  %23 = load i32, ptr %6, align 4
  %24 = sext i32 %23 to i64
  %25 = getelementptr inbounds ptr, ptr %22, i64 %24
  store ptr %19, ptr %25, align 8
  %26 = load ptr, ptr %9, align 8
  %27 = getelementptr inbounds nuw %struct.evsig_info, ptr %26, i32 0, i32 5
  %28 = load ptr, ptr %27, align 8
  %29 = load i32, ptr %6, align 4
  %30 = sext i32 %29 to i64
  %31 = getelementptr inbounds ptr, ptr %28, i64 %30
  %32 = load ptr, ptr %31, align 8
  %33 = icmp eq ptr %32, null
  br i1 %33, label %34, label %35

34:                                               ; preds = %18
  call void (ptr, ...) @event_warn(ptr noundef @.str.3)
  store i32 -1, ptr %4, align 4
  store i32 1, ptr %10, align 4
  br label %68

35:                                               ; preds = %18
  call void @llvm.memset.p0.i64(ptr align 8 %8, i8 0, i64 152, i1 false)
  %36 = load ptr, ptr %7, align 8
  %37 = getelementptr inbounds nuw %struct.sigaction, ptr %8, i32 0, i32 0
  store ptr %36, ptr %37, align 8
  %38 = getelementptr inbounds nuw %struct.sigaction, ptr %8, i32 0, i32 2
  %39 = load i32, ptr %38, align 8
  %40 = or i32 %39, 268435456
  store i32 %40, ptr %38, align 8
  %41 = getelementptr inbounds nuw %struct.sigaction, ptr %8, i32 0, i32 1
  %42 = call i32 @sigfillset(ptr noundef %41) #8
  %43 = load i32, ptr %6, align 4
  %44 = load ptr, ptr %9, align 8
  %45 = getelementptr inbounds nuw %struct.evsig_info, ptr %44, i32 0, i32 5
  %46 = load ptr, ptr %45, align 8
  %47 = load i32, ptr %6, align 4
  %48 = sext i32 %47 to i64
  %49 = getelementptr inbounds ptr, ptr %46, i64 %48
  %50 = load ptr, ptr %49, align 8
  %51 = call i32 @sigaction(i32 noundef %43, ptr noundef %8, ptr noundef %50) #8
  %52 = icmp eq i32 %51, -1
  br i1 %52, label %53, label %67

53:                                               ; preds = %35
  call void (ptr, ...) @event_warn(ptr noundef @.str.4)
  %54 = load ptr, ptr %9, align 8
  %55 = getelementptr inbounds nuw %struct.evsig_info, ptr %54, i32 0, i32 5
  %56 = load ptr, ptr %55, align 8
  %57 = load i32, ptr %6, align 4
  %58 = sext i32 %57 to i64
  %59 = getelementptr inbounds ptr, ptr %56, i64 %58
  %60 = load ptr, ptr %59, align 8
  call void @event_mm_free_(ptr noundef %60)
  %61 = load ptr, ptr %9, align 8
  %62 = getelementptr inbounds nuw %struct.evsig_info, ptr %61, i32 0, i32 5
  %63 = load ptr, ptr %62, align 8
  %64 = load i32, ptr %6, align 4
  %65 = sext i32 %64 to i64
  %66 = getelementptr inbounds ptr, ptr %63, i64 %65
  store ptr null, ptr %66, align 8
  store i32 -1, ptr %4, align 4
  store i32 1, ptr %10, align 4
  br label %68

67:                                               ; preds = %35
  store i32 0, ptr %4, align 4
  store i32 1, ptr %10, align 4
  br label %68

68:                                               ; preds = %67, %53, %34, %17
  call void @llvm.lifetime.end.p0(i64 8, ptr %9) #8
  call void @llvm.lifetime.end.p0(i64 152, ptr %8) #8
  %69 = load i32, ptr %4, align 4
  ret i32 %69
}