; Function Attrs: nounwind uwtable
define hidden range(i32 -1, 1) i32 @evsig_set_handler_(ptr noundef captures(none) %0, i32 noundef %1, ptr noundef %2) local_unnamed_addr #0 {
  %4 = alloca %struct.sigaction, align 8
  call void @llvm.lifetime.start.p0(i64 152, ptr nonnull %4) #8
  %5 = getelementptr inbounds nuw i8, ptr %0, i64 704
  %6 = load i32, ptr %5, align 8
  %.not.i = icmp slt i32 %1, %6
  br i1 %.not.i, label %25, label %7

7:                                                ; preds = %3
  %8 = add nsw i32 %1, 1
  %9 = load i32, ptr @event_debug_logging_mask_, align 4
  %.not21.i = icmp eq i32 %9, 0
  br i1 %.not21.i, label %11, label %10

10:                                               ; preds = %7
  tail call void (ptr, ...) @event_debugx_(ptr noundef nonnull @.str.1, ptr noundef nonnull @__func__.evsig_ensure_saved_, i32 noundef %1, i32 noundef %6) #8
  br label %11

11:                                               ; preds = %10, %7
  %12 = getelementptr inbounds nuw i8, ptr %0, i64 696
  %13 = load ptr, ptr %12, align 8
  %14 = sext i32 %8 to i64
  %15 = shl nsw i64 %14, 3
  %16 = tail call ptr @event_mm_realloc_(ptr noundef %13, i64 noundef %15) #8
  %17 = icmp eq ptr %16, null
  br i1 %17, label %evsig_ensure_saved_.exit, label %.thread.i

.thread.i:                                        ; preds = %11
  %18 = load i32, ptr %5, align 8
  %19 = sext i32 %18 to i64
  %20 = shl nsw i64 %19, 3
  %21 = getelementptr inbounds nuw i8, ptr %16, i64 %20
  %22 = sub nsw i32 %8, %18
  %23 = sext i32 %22 to i64
  %24 = shl nsw i64 %23, 3
  tail call void @llvm.memset.p0.i64(ptr nonnull align 1 %21, i8 0, i64 %24, i1 false)
  store i32 %8, ptr %5, align 8
  store ptr %16, ptr %12, align 8
  br label %25

evsig_ensure_saved_.exit:                         ; preds = %11
  tail call void (ptr, ...) @event_warn(ptr noundef nonnull @.str.2) #8
  br label %52

25:                                               ; preds = %.thread.i, %3
  %26 = tail call ptr @event_mm_malloc_(i64 noundef 152) #8
  %27 = getelementptr inbounds nuw i8, ptr %0, i64 696
  %28 = load ptr, ptr %27, align 8
  %29 = sext i32 %1 to i64
  %30 = getelementptr inbounds ptr, ptr %28, i64 %29
  store ptr %26, ptr %30, align 8
  %31 = load ptr, ptr %27, align 8
  %32 = getelementptr inbounds ptr, ptr %31, i64 %29
  %33 = load ptr, ptr %32, align 8
  %34 = icmp eq ptr %33, null
  br i1 %34, label %35, label %36

35:                                               ; preds = %25
  tail call void (ptr, ...) @event_warn(ptr noundef nonnull @.str.3) #8
  br label %52

36:                                               ; preds = %25
  %37 = getelementptr inbounds nuw i8, ptr %4, i64 8
  call void @llvm.memset.p0.i64(ptr noundef nonnull align 8 dereferenceable(152) %37, i8 0, i64 144, i1 false)
  store ptr %2, ptr %4, align 8
  %38 = getelementptr inbounds nuw i8, ptr %4, i64 136
  store i32 268435456, ptr %38, align 8
  %39 = getelementptr inbounds nuw i8, ptr %4, i64 8
  %40 = call i32 @sigfillset(ptr noundef nonnull %39) #8
  %41 = load ptr, ptr %27, align 8
  %42 = getelementptr inbounds ptr, ptr %41, i64 %29
  %43 = load ptr, ptr %42, align 8
  %44 = call i32 @sigaction(i32 noundef %1, ptr noundef nonnull %4, ptr noundef %43) #8
  %45 = icmp eq i32 %44, -1
  br i1 %45, label %46, label %52

46:                                               ; preds = %36
  call void (ptr, ...) @event_warn(ptr noundef nonnull @.str.4) #8
  %47 = load ptr, ptr %27, align 8
  %48 = getelementptr inbounds ptr, ptr %47, i64 %29
  %49 = load ptr, ptr %48, align 8
  call void @event_mm_free_(ptr noundef %49) #8
  %50 = load ptr, ptr %27, align 8
  %51 = getelementptr inbounds ptr, ptr %50, i64 %29
  store ptr null, ptr %51, align 8
  br label %52

52:                                               ; preds = %evsig_ensure_saved_.exit, %36, %46, %35
  %.0 = phi i32 [ -1, %35 ], [ -1, %46 ], [ -1, %evsig_ensure_saved_.exit ], [ 0, %36 ]
  call void @llvm.lifetime.end.p0(i64 152, ptr nonnull %4) #8
  ret i32 %.0
}